; Function Attrs: mustprogress nounwind uwtable
define void @aiReleaseExportBlob(ptr noundef %pData) local_unnamed_addr #7 {
entry:
  %isnull = icmp eq ptr %pData, null
  br i1 %isnull, label %delete.end, label %delete.notnull

delete.notnull:                                   ; preds = %entry
  tail call void @_ZN16aiExportDataBlobD2Ev(ptr noundef nonnull align 8 dereferenceable(1056) %pData) #10
  tail call void @_ZdlPv(ptr noundef nonnull %pData) #13
  br label %delete.end

delete.end:                                       ; preds = %delete.notnull, %entry
  ret void
}